target datalayout = "e-m:e-p270:32:32-p271:32:32-p272:64:64-i64:64-i128:128-f80:128-n8:16:32:64-S128"
target triple = "x86_64-pc-linux-gnu"

@zend_message_dispatcher_p = internal global ptr null, align 8

; Function Attrs: nounwind uwtable
define void @zend_message_dispatcher(i64 noundef %0, ptr noundef %1) #0 {
  %3 = alloca i64, align 8
  %4 = alloca ptr, align 8
  store i64 %0, ptr %3, align 8
  store ptr %1, ptr %4, align 8
  %5 = load ptr, ptr @zend_message_dispatcher_p, align 8
  %6 = icmp ne ptr %5, null
  br i1 %6, label %7, label %11

7:                                                ; preds = %2
  %8 = load ptr, ptr @zend_message_dispatcher_p, align 8
  %9 = load i64, ptr %3, align 8
  %10 = load ptr, ptr %4, align 8
  call void %8(i64 noundef %9, ptr noundef %10)
  br label %11

11:                                               ; preds = %7, %2
  ret void
}