; Function Attrs: nounwind uwtable
define void @zend_message_dispatcher(i64 noundef %0, ptr noundef %1) local_unnamed_addr #0 {
  %3 = load ptr, ptr @zend_message_dispatcher_p, align 8
  %.not = icmp eq ptr %3, null
  br i1 %.not, label %5, label %4

4:                                                ; preds = %2
  tail call void %3(i64 noundef %0, ptr noundef %1) #30
  br label %5

5:                                                ; preds = %4, %2
  ret void
}